	.file	"code.cpp"
	.intel_syntax noprefix
	.text
	.section	.text._ZN9CoolClass3setEi,"axG",@progbits,_ZN9CoolClass3setEi,comdat
	.align 2
	.weak	_ZN9CoolClass3setEi
	.type	_ZN9CoolClass3setEi, @function
_ZN9CoolClass3setEi:
.LFB0:
	.cfi_startproc
	endbr64
	push	rbp
	.cfi_def_cfa_offset 16
	.cfi_offset 6, -16
	mov	rbp, rsp
	.cfi_def_cfa_register 6
	mov	QWORD PTR -8[rbp], rdi
	mov	DWORD PTR -12[rbp], esi
	mov	rax, QWORD PTR -8[rbp]
	mov	edx, DWORD PTR -12[rbp]
	mov	DWORD PTR 8[rax], edx
	nop
	pop	rbp
	.cfi_def_cfa 7, 8
	ret
	.cfi_endproc
.LFE0:
	.size	_ZN9CoolClass3setEi, .-_ZN9CoolClass3setEi
	.section	.text._ZN9CoolClass3getEv,"axG",@progbits,_ZN9CoolClass3getEv,comdat
	.align 2
	.weak	_ZN9CoolClass3getEv
	.type	_ZN9CoolClass3getEv, @function
_ZN9CoolClass3getEv:
.LFB1:
	.cfi_startproc
	endbr64
	push	rbp
	.cfi_def_cfa_offset 16
	.cfi_offset 6, -16
	mov	rbp, rsp
	.cfi_def_cfa_register 6
	mov	QWORD PTR -8[rbp], rdi
	mov	rax, QWORD PTR -8[rbp]
	mov	eax, DWORD PTR 8[rax]
	pop	rbp
	.cfi_def_cfa 7, 8
	ret
	.cfi_endproc
.LFE1:
	.size	_ZN9CoolClass3getEv, .-_ZN9CoolClass3getEv
	.section	.text._ZN9CoolClassC2Ev,"axG",@progbits,_ZN9CoolClassC5Ev,comdat
	.align 2
	.weak	_ZN9CoolClassC2Ev
	.type	_ZN9CoolClassC2Ev, @function
_ZN9CoolClassC2Ev:
.LFB6:
	.cfi_startproc
	endbr64
	push	rbp
	.cfi_def_cfa_offset 16
	.cfi_offset 6, -16
	mov	rbp, rsp
	.cfi_def_cfa_register 6
	mov	QWORD PTR -8[rbp], rdi
	lea	rdx, _ZTV9CoolClass[rip+16]
	mov	rax, QWORD PTR -8[rbp]
	mov	QWORD PTR [rax], rdx
	nop
	pop	rbp
	.cfi_def_cfa 7, 8
	ret
	.cfi_endproc
.LFE6:
	.size	_ZN9CoolClassC2Ev, .-_ZN9CoolClassC2Ev
	.weak	_ZN9CoolClassC1Ev
	.set	_ZN9CoolClassC1Ev,_ZN9CoolClassC2Ev
	.section	.rodata
.LC0:
	.string	"%d\n"
	.text
	.globl	main
	.type	main, @function
main:
.LFB4:
	.cfi_startproc
	endbr64
	push	rbp
	.cfi_def_cfa_offset 16
	.cfi_offset 6, -16
	mov	rbp, rsp
	.cfi_def_cfa_register 6
	sub	rsp, 32
	mov	rax, QWORD PTR fs:40
	mov	QWORD PTR -8[rbp], rax
	xor	eax, eax
	lea	rax, -32[rbp]
	mov	rdi, rax
	call	_ZN9CoolClassC1Ev
	mov	esi, 16
	lea	rdi, .LC0[rip]
	mov	eax, 0
	call	printf@PLT
	mov	esi, 4
	lea	rdi, .LC0[rip]
	mov	eax, 0
	call	printf@PLT
	mov	eax, 0
	mov	rdx, QWORD PTR -8[rbp]
	xor	rdx, QWORD PTR fs:40
	je	.L7
	call	__stack_chk_fail@PLT
.L7:
	leave
	.cfi_def_cfa 7, 8
	ret
	.cfi_endproc
.LFE4:
	.size	main, .-main
	.weak	_ZTV9CoolClass
	.section	.data.rel.ro.local._ZTV9CoolClass,"awG",@progbits,_ZTV9CoolClass,comdat
	.align 8
	.type	_ZTV9CoolClass, @object
	.size	_ZTV9CoolClass, 32
_ZTV9CoolClass:
	.quad	0
	.quad	_ZTI9CoolClass
	.quad	_ZN9CoolClass3setEi
	.quad	_ZN9CoolClass3getEv
	.weak	_ZTI9CoolClass
	.section	.data.rel.ro._ZTI9CoolClass,"awG",@progbits,_ZTI9CoolClass,comdat
	.align 8
	.type	_ZTI9CoolClass, @object
	.size	_ZTI9CoolClass, 16
_ZTI9CoolClass:
	.quad	_ZTVN10__cxxabiv117__class_type_infoE+16
	.quad	_ZTS9CoolClass
	.weak	_ZTS9CoolClass
	.section	.rodata._ZTS9CoolClass,"aG",@progbits,_ZTS9CoolClass,comdat
	.align 8
	.type	_ZTS9CoolClass, @object
	.size	_ZTS9CoolClass, 11
_ZTS9CoolClass:
	.string	"9CoolClass"
	.ident	"GCC: (Ubuntu 9.3.0-17ubuntu1~20.04) 9.3.0"
	.section	.note.GNU-stack,"",@progbits
	.section	.note.gnu.property,"a"
	.align 8
	.long	 1f - 0f
	.long	 4f - 1f
	.long	 5
0:
	.string	 "GNU"
1:
	.align 8
	.long	 0xc0000002
	.long	 3f - 2f
2:
	.long	 0x3
3:
	.align 8
4:
